; ModuleID = '42/788.c'
source_filename = "42/788.c"
target datalayout = "e-m:e-p270:32:32-p271:32:32-p272:64:64-i64:64-f80:128-n8:16:32:64-S128"
target triple = "x86_64-pc-linux-gnu"

%struct.stu = type { [20 x i8], i32, %struct.stu* }

@.str = private unnamed_addr constant [3 x i8] c"%d\00", align 1
@.str.1 = private unnamed_addr constant [2 x i8] c" \00", align 1

; Function Attrs: noinline nounwind uwtable
define dso_local %struct.stu* @del(%struct.stu* %0, i32 %1) #0 {
  %3 = alloca %struct.stu*, align 8
  %4 = alloca i32, align 4
  %5 = alloca %struct.stu*, align 8
  %6 = alloca %struct.stu*, align 8
  store %struct.stu* %0, %struct.stu** %3, align 8
  store i32 %1, i32* %4, align 4
  %7 = load %struct.stu*, %struct.stu** %3, align 8
  store %struct.stu* %7, %struct.stu** %5, align 8
  br label %8

8:                                                ; preds = %34, %2
  %9 = load %struct.stu*, %struct.stu** %5, align 8
  %10 = icmp ne %struct.stu* %9, null
  br i1 %10, label %11, label %38

11:                                               ; preds = %8
  %12 = load i32, i32* %4, align 4
  %13 = load %struct.stu*, %struct.stu** %5, align 8
  %14 = getelementptr inbounds %struct.stu, %struct.stu* %13, i32 0, i32 1
  %15 = load i32, i32* %14, align 4
  %16 = icmp ne i32 %12, %15
  br i1 %16, label %17, label %19

17:                                               ; preds = %11
  %18 = load %struct.stu*, %struct.stu** %5, align 8
  store %struct.stu* %18, %struct.stu** %6, align 8
  br label %34

19:                                               ; preds = %11
  %20 = load %struct.stu*, %struct.stu** %5, align 8
  %21 = load %struct.stu*, %struct.stu** %3, align 8
  %22 = icmp eq %struct.stu* %20, %21
  br i1 %22, label %23, label %27

23:                                               ; preds = %19
  %24 = load %struct.stu*, %struct.stu** %5, align 8
  %25 = getelementptr inbounds %struct.stu, %struct.stu* %24, i32 0, i32 2
  %26 = load %struct.stu*, %struct.stu** %25, align 8
  store %struct.stu* %26, %struct.stu** %3, align 8
  br label %33

27:                                               ; preds = %19
  %28 = load %struct.stu*, %struct.stu** %5, align 8
  %29 = getelementptr inbounds %struct.stu, %struct.stu* %28, i32 0, i32 2
  %30 = load %struct.stu*, %struct.stu** %29, align 8
  %31 = load %struct.stu*, %struct.stu** %6, align 8
  %32 = getelementptr inbounds %struct.stu, %struct.stu* %31, i32 0, i32 2
  store %struct.stu* %30, %struct.stu** %32, align 8
  br label %33

33:                                               ; preds = %27, %23
  br label %34

34:                                               ; preds = %33, %17
  %35 = load %struct.stu*, %struct.stu** %5, align 8
  %36 = getelementptr inbounds %struct.stu, %struct.stu* %35, i32 0, i32 2
  %37 = load %struct.stu*, %struct.stu** %36, align 8
  store %struct.stu* %37, %struct.stu** %5, align 8
  br label %8

38:                                               ; preds = %8
  %39 = load %struct.stu*, %struct.stu** %3, align 8
  ret %struct.stu* %39
}

; Function Attrs: noinline nounwind uwtable
define dso_local %struct.stu* @creat(i32 %0) #0 {
  %2 = alloca i32, align 4
  %3 = alloca %struct.stu*, align 8
  %4 = alloca %struct.stu*, align 8
  %5 = alloca %struct.stu*, align 8
  %6 = alloca i32, align 4
  store i32 %0, i32* %2, align 4
  store i32 0, i32* %6, align 4
  %7 = call noalias i8* @malloc(i64 32) #3
  %8 = bitcast i8* %7 to %struct.stu*
  store %struct.stu* %8, %struct.stu** %5, align 8
  store %struct.stu* %8, %struct.stu** %4, align 8
  store %struct.stu* null, %struct.stu** %3, align 8
  br label %9

9:                                                ; preds = %27, %1
  %10 = load i32, i32* %6, align 4
  %11 = load i32, i32* %2, align 4
  %12 = icmp slt i32 %10, %11
  br i1 %12, label %13, label %31

13:                                               ; preds = %9
  %14 = load %struct.stu*, %struct.stu** %4, align 8
  %15 = getelementptr inbounds %struct.stu, %struct.stu* %14, i32 0, i32 1
  %16 = call i32 (i8*, ...) @__isoc99_scanf(i8* getelementptr inbounds ([3 x i8], [3 x i8]* @.str, i64 0, i64 0), i32* %15)
  %17 = load i32, i32* %6, align 4
  %18 = add nsw i32 %17, 1
  store i32 %18, i32* %6, align 4
  %19 = load i32, i32* %6, align 4
  %20 = icmp eq i32 %19, 1
  br i1 %20, label %21, label %23

21:                                               ; preds = %13
  %22 = load %struct.stu*, %struct.stu** %4, align 8
  store %struct.stu* %22, %struct.stu** %3, align 8
  br label %27

23:                                               ; preds = %13
  %24 = load %struct.stu*, %struct.stu** %4, align 8
  %25 = load %struct.stu*, %struct.stu** %5, align 8
  %26 = getelementptr inbounds %struct.stu, %struct.stu* %25, i32 0, i32 2
  store %struct.stu* %24, %struct.stu** %26, align 8
  br label %27

27:                                               ; preds = %23, %21
  %28 = load %struct.stu*, %struct.stu** %4, align 8
  store %struct.stu* %28, %struct.stu** %5, align 8
  %29 = call noalias i8* @malloc(i64 32) #3
  %30 = bitcast i8* %29 to %struct.stu*
  store %struct.stu* %30, %struct.stu** %4, align 8
  br label %9

31:                                               ; preds = %9
  %32 = load %struct.stu*, %struct.stu** %5, align 8
  %33 = getelementptr inbounds %struct.stu, %struct.stu* %32, i32 0, i32 2
  store %struct.stu* null, %struct.stu** %33, align 8
  %34 = load %struct.stu*, %struct.stu** %3, align 8
  ret %struct.stu* %34
}

; Function Attrs: nounwind
declare dso_local noalias i8* @malloc(i64) #1

declare dso_local i32 @__isoc99_scanf(i8*, ...) #2

; Function Attrs: noinline nounwind uwtable
define dso_local void @print(%struct.stu* %0) #0 {
  %2 = alloca %struct.stu*, align 8
  %3 = alloca %struct.stu*, align 8
  store %struct.stu* %0, %struct.stu** %2, align 8
  %4 = load %struct.stu*, %struct.stu** %2, align 8
  store %struct.stu* %4, %struct.stu** %3, align 8
  br label %5

5:                                                ; preds = %20, %1
  %6 = load %struct.stu*, %struct.stu** %3, align 8
  %7 = icmp ne %struct.stu* %6, null
  br i1 %7, label %8, label %21

8:                                                ; preds = %5
  %9 = load %struct.stu*, %struct.stu** %3, align 8
  %10 = getelementptr inbounds %struct.stu, %struct.stu* %9, i32 0, i32 1
  %11 = load i32, i32* %10, align 4
  %12 = call i32 (i8*, ...) @printf(i8* getelementptr inbounds ([3 x i8], [3 x i8]* @.str, i64 0, i64 0), i32 %11)
  %13 = load %struct.stu*, %struct.stu** %3, align 8
  %14 = getelementptr inbounds %struct.stu, %struct.stu* %13, i32 0, i32 2
  %15 = load %struct.stu*, %struct.stu** %14, align 8
  store %struct.stu* %15, %struct.stu** %3, align 8
  %16 = load %struct.stu*, %struct.stu** %3, align 8
  %17 = icmp ne %struct.stu* %16, null
  br i1 %17, label %18, label %20

18:                                               ; preds = %8
  %19 = call i32 (i8*, ...) @printf(i8* getelementptr inbounds ([2 x i8], [2 x i8]* @.str.1, i64 0, i64 0))
  br label %20

20:                                               ; preds = %18, %8
  br label %5

21:                                               ; preds = %5
  ret void
}

declare dso_local i32 @printf(i8*, ...) #2

; Function Attrs: noinline nounwind uwtable
define dso_local void @main() #0 {
  %1 = alloca %struct.stu*, align 8
  %2 = alloca i32, align 4
  %3 = alloca i32, align 4
  %4 = call i32 (i8*, ...) @__isoc99_scanf(i8* getelementptr inbounds ([3 x i8], [3 x i8]* @.str, i64 0, i64 0), i32* %2)
  %5 = load i32, i32* %2, align 4
  %6 = call %struct.stu* @creat(i32 %5)
  store %struct.stu* %6, %struct.stu** %1, align 8
  %7 = call i32 (i8*, ...) @__isoc99_scanf(i8* getelementptr inbounds ([3 x i8], [3 x i8]* @.str, i64 0, i64 0), i32* %3)
  %8 = load %struct.stu*, %struct.stu** %1, align 8
  %9 = load i32, i32* %3, align 4
  %10 = call %struct.stu* @del(%struct.stu* %8, i32 %9)
  store %struct.stu* %10, %struct.stu** %1, align 8
  %11 = load %struct.stu*, %struct.stu** %1, align 8
  call void @print(%struct.stu* %11)
  ret void
}


!llvm.module.flags = !{!0}
!llvm.ident = !{!1}

!0 = !{i32 1, !"wchar_size", i32 4}
!1 = !{!"clang version 10.0.0-4ubuntu1 "}
